target datalayout = "e-m:e-p270:32:32-p271:32:32-p272:64:64-i64:64-i128:128-f80:128-n8:16:32:64-S128"
target triple = "x86_64-unknown-linux-gnu"

%"class.grpc_core::PolymorphicRefCount" = type { ptr }
%"class.grpc_core::RefCount" = type { %"struct.std::atomic" }
%"struct.std::atomic" = type { %"struct.std::__atomic_base" }
%"struct.std::__atomic_base" = type { i64 }
%class.grpc_alts_server_credentials = type { %struct.grpc_server_credentials, ptr, ptr }
%struct.grpc_server_credentials = type { %"class.grpc_core::RefCounted.2", %struct.grpc_auth_metadata_processor }
%"class.grpc_core::RefCounted.2" = type { %"class.grpc_core::PolymorphicRefCount", %"class.grpc_core::RefCount" }
%struct.grpc_auth_metadata_processor = type { ptr, ptr, ptr }

@_ZTV23grpc_server_credentials = linkonce_odr unnamed_addr constant { [6 x ptr] } { [6 x ptr] [ptr null, ptr @_ZTI23grpc_server_credentials, ptr @_ZN23grpc_server_credentialsD2Ev, ptr @_ZN23grpc_server_credentialsD0Ev, ptr @__cxa_pure_virtual, ptr @__cxa_pure_virtual] }, comdat, align 8

; Function Attrs: mustprogress nounwind uwtable
define linkonce_odr void @_ZN9grpc_core19PolymorphicRefCountD2Ev(ptr noundef nonnull align 8 dereferenceable(8) %this) unnamed_addr #5 comdat align 2 {
entry:
  %this.addr = alloca ptr, align 8
  store ptr %this, ptr %this.addr, align 8
  ret void
}

; Function Attrs: mustprogress nounwind uwtable
define linkonce_odr void @_ZN9grpc_core10RefCountedI23grpc_server_credentialsNS_19PolymorphicRefCountENS_11UnrefDeleteEED2Ev(ptr noundef nonnull align 8 dereferenceable(16) %this) unnamed_addr #5 comdat align 2 {
entry:
  %this.addr = alloca ptr, align 8
  store ptr %this, ptr %this.addr, align 8
  %this1 = load ptr, ptr %this.addr, align 8
  call void @_ZN9grpc_core19PolymorphicRefCountD2Ev(ptr noundef nonnull align 8 dereferenceable(8) %this1) #3
  ret void
}

; Function Attrs: mustprogress uwtable
define linkonce_odr void @_ZN23grpc_server_credentials16DestroyProcessorEv(ptr noundef nonnull align 8 dereferenceable(40) %this) #4 comdat align 2 {
entry:
  %this.addr = alloca ptr, align 8
  store ptr %this, ptr %this.addr, align 8
  %this1 = load ptr, ptr %this.addr, align 8
  %processor_ = getelementptr inbounds %struct.grpc_server_credentials, ptr %this1, i32 0, i32 1
  %destroy = getelementptr inbounds %struct.grpc_auth_metadata_processor, ptr %processor_, i32 0, i32 1
  %0 = load ptr, ptr %destroy, align 8
  %cmp = icmp ne ptr %0, null
  br i1 %cmp, label %land.lhs.true, label %if.end

land.lhs.true:                                    ; preds = %entry
  %processor_2 = getelementptr inbounds %struct.grpc_server_credentials, ptr %this1, i32 0, i32 1
  %state = getelementptr inbounds %struct.grpc_auth_metadata_processor, ptr %processor_2, i32 0, i32 2
  %1 = load ptr, ptr %state, align 8
  %cmp3 = icmp ne ptr %1, null
  br i1 %cmp3, label %if.then, label %if.end

if.then:                                          ; preds = %land.lhs.true
  %processor_4 = getelementptr inbounds %struct.grpc_server_credentials, ptr %this1, i32 0, i32 1
  %destroy5 = getelementptr inbounds %struct.grpc_auth_metadata_processor, ptr %processor_4, i32 0, i32 1
  %2 = load ptr, ptr %destroy5, align 8
  %processor_6 = getelementptr inbounds %struct.grpc_server_credentials, ptr %this1, i32 0, i32 1
  %state7 = getelementptr inbounds %struct.grpc_auth_metadata_processor, ptr %processor_6, i32 0, i32 2
  %3 = load ptr, ptr %state7, align 8
  call void %2(ptr noundef %3)
  br label %if.end

if.end:                                           ; preds = %if.then, %land.lhs.true, %entry
  ret void
}

; Function Attrs: mustprogress nounwind uwtable
define linkonce_odr void @_ZN23grpc_server_credentialsD2Ev(ptr noundef nonnull align 8 dereferenceable(40) %this) unnamed_addr #5 comdat align 2 personality ptr @__gxx_personality_v0 {
entry:
  %this.addr = alloca ptr, align 8
  store ptr %this, ptr %this.addr, align 8
  %this1 = load ptr, ptr %this.addr, align 8
  store ptr getelementptr inbounds ({ [6 x ptr] }, ptr @_ZTV23grpc_server_credentials, i32 0, i32 0, i32 2), ptr %this1, align 8
  invoke void @_ZN23grpc_server_credentials16DestroyProcessorEv(ptr noundef nonnull align 8 dereferenceable(40) %this1)
          to label %invoke.cont unwind label %terminate.lpad

invoke.cont:                                      ; preds = %entry
  call void @_ZN9grpc_core10RefCountedI23grpc_server_credentialsNS_19PolymorphicRefCountENS_11UnrefDeleteEED2Ev(ptr noundef nonnull align 8 dereferenceable(16) %this1) #3
  ret void

terminate.lpad:                                   ; preds = %entry
  %0 = landingpad { ptr, i32 }
          catch ptr null
  %1 = extractvalue { ptr, i32 } %0, 0
  call void @__clang_call_terminate(ptr %1) #12
  unreachable
}

; Function Attrs: mustprogress nounwind uwtable
define void @_ZN28grpc_alts_server_credentialsD2Ev(ptr noundef nonnull align 8 dereferenceable(56) %this) unnamed_addr #5 align 2 personality ptr @__gxx_personality_v0 {
entry:
  %this.addr = alloca ptr, align 8
  store ptr %this, ptr %this.addr, align 8
  %this1 = load ptr, ptr %this.addr, align 8
  %options_ = getelementptr inbounds %class.grpc_alts_server_credentials, ptr %this1, i32 0, i32 1
  %0 = load ptr, ptr %options_, align 8
  invoke void @grpc_alts_credentials_options_destroy(ptr noundef %0)
          to label %invoke.cont unwind label %terminate.lpad

invoke.cont:                                      ; preds = %entry
  %handshaker_service_url_ = getelementptr inbounds %class.grpc_alts_server_credentials, ptr %this1, i32 0, i32 2
  %1 = load ptr, ptr %handshaker_service_url_, align 8
  invoke void @gpr_free(ptr noundef %1)
          to label %invoke.cont2 unwind label %terminate.lpad

invoke.cont2:                                     ; preds = %invoke.cont
  call void @_ZN23grpc_server_credentialsD2Ev(ptr noundef nonnull align 8 dereferenceable(40) %this1) #3
  ret void

terminate.lpad:                                   ; preds = %invoke.cont, %entry
  %2 = landingpad { ptr, i32 }
          catch ptr null
  %3 = extractvalue { ptr, i32 } %2, 0
  call void @__clang_call_terminate(ptr %3) #12
  unreachable
}