; Function Attrs: mustprogress nounwind uwtable
define void @_ZN28grpc_alts_server_credentialsD2Ev(ptr nocapture noundef nonnull align 8 dereferenceable(56) %this) unnamed_addr #4 align 2 personality ptr @__gxx_personality_v0 {
entry:
  %options_ = getelementptr inbounds i8, ptr %this, i64 40
  %0 = load ptr, ptr %options_, align 8
  invoke void @grpc_alts_credentials_options_destroy(ptr noundef %0)
          to label %invoke.cont unwind label %terminate.lpad

invoke.cont:                                      ; preds = %entry
  %handshaker_service_url_ = getelementptr inbounds i8, ptr %this, i64 48
  %1 = load ptr, ptr %handshaker_service_url_, align 8
  invoke void @gpr_free(ptr noundef %1)
          to label %invoke.cont2 unwind label %terminate.lpad

invoke.cont2:                                     ; preds = %invoke.cont
  store ptr getelementptr inbounds ({ [6 x ptr] }, ptr @_ZTV23grpc_server_credentials, i64 0, i32 0, i64 2), ptr %this, align 8
  %destroy.i.i = getelementptr inbounds i8, ptr %this, i64 24
  %2 = load ptr, ptr %destroy.i.i, align 8
  %cmp.not.i.i = icmp eq ptr %2, null
  br i1 %cmp.not.i.i, label %_ZN23grpc_server_credentialsD2Ev.exit, label %land.lhs.true.i.i

land.lhs.true.i.i:                                ; preds = %invoke.cont2
  %state.i.i = getelementptr inbounds i8, ptr %this, i64 32
  %3 = load ptr, ptr %state.i.i, align 8
  %cmp3.not.i.i = icmp eq ptr %3, null
  br i1 %cmp3.not.i.i, label %_ZN23grpc_server_credentialsD2Ev.exit, label %if.then.i.i

if.then.i.i:                                      ; preds = %land.lhs.true.i.i
  invoke void %2(ptr noundef nonnull %3)
          to label %_ZN23grpc_server_credentialsD2Ev.exit unwind label %terminate.lpad.i

terminate.lpad.i:                                 ; preds = %if.then.i.i
  %4 = landingpad { ptr, i32 }
          catch ptr null
  %5 = extractvalue { ptr, i32 } %4, 0
  tail call void @__clang_call_terminate(ptr %5) #14
  unreachable

_ZN23grpc_server_credentialsD2Ev.exit:            ; preds = %invoke.cont2, %land.lhs.true.i.i, %if.then.i.i
  ret void

terminate.lpad:                                   ; preds = %invoke.cont, %entry
  %6 = landingpad { ptr, i32 }
          catch ptr null
  %7 = extractvalue { ptr, i32 } %6, 0
  tail call void @__clang_call_terminate(ptr %7) #14
  unreachable
}